target datalayout = "e-m:e-p270:32:32-p271:32:32-p272:64:64-i64:64-i128:128-f80:128-n8:16:32:64-S128"
target triple = "x86_64-pc-linux-gnu"

%struct.jv = type { i8, i8, i16, i32, %union.anon }
%union.anon = type { ptr }
%struct.tm = type { i32, i32, i32, i32, i32, i32, i32, i32, i32, i64, ptr }

@.str.220 = private unnamed_addr constant [43 x i8] c"strftime/1 requires parsed datetime inputs\00", align 1
@.str.221 = private unnamed_addr constant [36 x i8] c"strftime/1 requires a string format\00", align 1
@.str.222 = private unnamed_addr constant [35 x i8] c"strftime/1: unknown system failure\00", align 1

; Function Attrs: inlinehint nounwind uwtable
define internal { i64, ptr } @ret_error(i64 %0, ptr %1, i64 %2, ptr %3) #7 {
  %5 = alloca %struct.jv, align 8
  %6 = alloca %struct.jv, align 8
  %7 = alloca %struct.jv, align 8
  %8 = getelementptr inbounds nuw { i64, ptr }, ptr %6, i32 0, i32 0
  store i64 %0, ptr %8, align 8
  %9 = getelementptr inbounds nuw { i64, ptr }, ptr %6, i32 0, i32 1
  store ptr %1, ptr %9, align 8
  %10 = getelementptr inbounds nuw { i64, ptr }, ptr %7, i32 0, i32 0
  store i64 %2, ptr %10, align 8
  %11 = getelementptr inbounds nuw { i64, ptr }, ptr %7, i32 0, i32 1
  store ptr %3, ptr %11, align 8
  %12 = getelementptr inbounds nuw { i64, ptr }, ptr %6, i32 0, i32 0
  %13 = load i64, ptr %12, align 8
  %14 = getelementptr inbounds nuw { i64, ptr }, ptr %6, i32 0, i32 1
  %15 = load ptr, ptr %14, align 8
  call void @jv_free(i64 %13, ptr %15)
  %16 = getelementptr inbounds nuw { i64, ptr }, ptr %7, i32 0, i32 0
  %17 = load i64, ptr %16, align 8
  %18 = getelementptr inbounds nuw { i64, ptr }, ptr %7, i32 0, i32 1
  %19 = load ptr, ptr %18, align 8
  %20 = call { i64, ptr } @jv_invalid_with_msg(i64 %17, ptr %19)
  %21 = getelementptr inbounds nuw { i64, ptr }, ptr %5, i32 0, i32 0
  %22 = extractvalue { i64, ptr } %20, 0
  store i64 %22, ptr %21, align 8
  %23 = getelementptr inbounds nuw { i64, ptr }, ptr %5, i32 0, i32 1
  %24 = extractvalue { i64, ptr } %20, 1
  store ptr %24, ptr %23, align 8
  %25 = load { i64, ptr }, ptr %5, align 8
  ret { i64, ptr } %25
}

; Function Attrs: inlinehint nounwind uwtable
define internal { i64, ptr } @ret_error2(i64 %0, ptr %1, i64 %2, ptr %3, i64 %4, ptr %5) #7 {
  %7 = alloca %struct.jv, align 8
  %8 = alloca %struct.jv, align 8
  %9 = alloca %struct.jv, align 8
  %10 = alloca %struct.jv, align 8
  %11 = getelementptr inbounds nuw { i64, ptr }, ptr %8, i32 0, i32 0
  store i64 %0, ptr %11, align 8
  %12 = getelementptr inbounds nuw { i64, ptr }, ptr %8, i32 0, i32 1
  store ptr %1, ptr %12, align 8
  %13 = getelementptr inbounds nuw { i64, ptr }, ptr %9, i32 0, i32 0
  store i64 %2, ptr %13, align 8
  %14 = getelementptr inbounds nuw { i64, ptr }, ptr %9, i32 0, i32 1
  store ptr %3, ptr %14, align 8
  %15 = getelementptr inbounds nuw { i64, ptr }, ptr %10, i32 0, i32 0
  store i64 %4, ptr %15, align 8
  %16 = getelementptr inbounds nuw { i64, ptr }, ptr %10, i32 0, i32 1
  store ptr %5, ptr %16, align 8
  %17 = getelementptr inbounds nuw { i64, ptr }, ptr %8, i32 0, i32 0
  %18 = load i64, ptr %17, align 8
  %19 = getelementptr inbounds nuw { i64, ptr }, ptr %8, i32 0, i32 1
  %20 = load ptr, ptr %19, align 8
  call void @jv_free(i64 %18, ptr %20)
  %21 = getelementptr inbounds nuw { i64, ptr }, ptr %9, i32 0, i32 0
  %22 = load i64, ptr %21, align 8
  %23 = getelementptr inbounds nuw { i64, ptr }, ptr %9, i32 0, i32 1
  %24 = load ptr, ptr %23, align 8
  call void @jv_free(i64 %22, ptr %24)
  %25 = getelementptr inbounds nuw { i64, ptr }, ptr %10, i32 0, i32 0
  %26 = load i64, ptr %25, align 8
  %27 = getelementptr inbounds nuw { i64, ptr }, ptr %10, i32 0, i32 1
  %28 = load ptr, ptr %27, align 8
  %29 = call { i64, ptr } @jv_invalid_with_msg(i64 %26, ptr %28)
  %30 = getelementptr inbounds nuw { i64, ptr }, ptr %7, i32 0, i32 0
  %31 = extractvalue { i64, ptr } %29, 0
  store i64 %31, ptr %30, align 8
  %32 = getelementptr inbounds nuw { i64, ptr }, ptr %7, i32 0, i32 1
  %33 = extractvalue { i64, ptr } %29, 1
  store ptr %33, ptr %32, align 8
  %34 = load { i64, ptr }, ptr %7, align 8
  ret { i64, ptr } %34
}

; Function Attrs: nounwind uwtable
define internal i32 @jv_is_valid(i64 %0, ptr %1) #0 {
  %3 = alloca %struct.jv, align 8
  %4 = getelementptr inbounds nuw { i64, ptr }, ptr %3, i32 0, i32 0
  store i64 %0, ptr %4, align 8
  %5 = getelementptr inbounds nuw { i64, ptr }, ptr %3, i32 0, i32 1
  store ptr %1, ptr %5, align 8
  %6 = getelementptr inbounds nuw { i64, ptr }, ptr %3, i32 0, i32 0
  %7 = load i64, ptr %6, align 8
  %8 = getelementptr inbounds nuw { i64, ptr }, ptr %3, i32 0, i32 1
  %9 = load ptr, ptr %8, align 8
  %10 = call i32 @jv_get_kind(i64 %7, ptr %9)
  %11 = icmp ne i32 %10, 0
  %12 = zext i1 %11 to i32
  ret i32 %12
}

; Function Attrs: nounwind uwtable
define internal { i64, ptr } @f_strftime(ptr noundef %0, i64 %1, ptr %2, i64 %3, ptr %4) #0 {
  %6 = alloca %struct.jv, align 8
  %7 = alloca %struct.jv, align 8
  %8 = alloca %struct.jv, align 8
  %9 = alloca ptr, align 8
  %10 = alloca %struct.jv, align 8
  %11 = alloca %struct.jv, align 8
  %12 = alloca %struct.jv, align 8
  %13 = alloca %struct.tm, align 8
  %14 = alloca %struct.jv, align 8
  %15 = alloca i32, align 4
  %16 = alloca ptr, align 8
  %17 = alloca i64, align 8
  %18 = alloca ptr, align 8
  %19 = alloca i64, align 8
  %20 = alloca %struct.jv, align 8
  %21 = getelementptr inbounds nuw { i64, ptr }, ptr %7, i32 0, i32 0
  store i64 %1, ptr %21, align 8
  %22 = getelementptr inbounds nuw { i64, ptr }, ptr %7, i32 0, i32 1
  store ptr %2, ptr %22, align 8
  %23 = getelementptr inbounds nuw { i64, ptr }, ptr %8, i32 0, i32 0
  store i64 %3, ptr %23, align 8
  %24 = getelementptr inbounds nuw { i64, ptr }, ptr %8, i32 0, i32 1
  store ptr %4, ptr %24, align 8
  store ptr %0, ptr %9, align 8, !tbaa !25
  %25 = getelementptr inbounds nuw { i64, ptr }, ptr %7, i32 0, i32 0
  %26 = load i64, ptr %25, align 8
  %27 = getelementptr inbounds nuw { i64, ptr }, ptr %7, i32 0, i32 1
  %28 = load ptr, ptr %27, align 8
  %29 = call i32 @jv_get_kind(i64 %26, ptr %28)
  %30 = icmp eq i32 %29, 4
  br i1 %30, label %31, label %54

31:                                               ; preds = %5
  call void @llvm.lifetime.start.p0(i64 16, ptr %10) #10
  %32 = load ptr, ptr %9, align 8, !tbaa !25
  %33 = getelementptr inbounds nuw { i64, ptr }, ptr %7, i32 0, i32 0
  %34 = load i64, ptr %33, align 8
  %35 = getelementptr inbounds nuw { i64, ptr }, ptr %7, i32 0, i32 1
  %36 = load ptr, ptr %35, align 8
  %37 = call { i64, ptr } @f_gmtime(ptr noundef %32, i64 %34, ptr %36)
  %38 = getelementptr inbounds nuw { i64, ptr }, ptr %10, i32 0, i32 0
  %39 = extractvalue { i64, ptr } %37, 0
  store i64 %39, ptr %38, align 8
  %40 = getelementptr inbounds nuw { i64, ptr }, ptr %10, i32 0, i32 1
  %41 = extractvalue { i64, ptr } %37, 1
  store ptr %41, ptr %40, align 8
  call void @llvm.memcpy.p0.p0.i64(ptr align 8 %7, ptr align 8 %10, i64 16, i1 false), !tbaa.struct !4
  call void @llvm.lifetime.end.p0(i64 16, ptr %10) #10
  %42 = getelementptr inbounds nuw { i64, ptr }, ptr %7, i32 0, i32 0
  %43 = load i64, ptr %42, align 8
  %44 = getelementptr inbounds nuw { i64, ptr }, ptr %7, i32 0, i32 1
  %45 = load ptr, ptr %44, align 8
  %46 = call i32 @jv_is_valid(i64 %43, ptr %45)
  %47 = icmp ne i32 %46, 0
  br i1 %47, label %53, label %48

48:                                               ; preds = %31
  %49 = getelementptr inbounds nuw { i64, ptr }, ptr %8, i32 0, i32 0
  %50 = load i64, ptr %49, align 8
  %51 = getelementptr inbounds nuw { i64, ptr }, ptr %8, i32 0, i32 1
  %52 = load ptr, ptr %51, align 8
  call void @jv_free(i64 %50, ptr %52)
  call void @llvm.memcpy.p0.p0.i64(ptr align 8 %6, ptr align 8 %7, i64 16, i1 false), !tbaa.struct !4
  br label %190

53:                                               ; preds = %31
  br label %85

54:                                               ; preds = %5
  %55 = getelementptr inbounds nuw { i64, ptr }, ptr %7, i32 0, i32 0
  %56 = load i64, ptr %55, align 8
  %57 = getelementptr inbounds nuw { i64, ptr }, ptr %7, i32 0, i32 1
  %58 = load ptr, ptr %57, align 8
  %59 = call i32 @jv_get_kind(i64 %56, ptr %58)
  %60 = icmp ne i32 %59, 6
  br i1 %60, label %61, label %84

61:                                               ; preds = %54
  %62 = call { i64, ptr } @jv_string(ptr noundef @.str.220)
  %63 = getelementptr inbounds nuw { i64, ptr }, ptr %11, i32 0, i32 0
  %64 = extractvalue { i64, ptr } %62, 0
  store i64 %64, ptr %63, align 8
  %65 = getelementptr inbounds nuw { i64, ptr }, ptr %11, i32 0, i32 1
  %66 = extractvalue { i64, ptr } %62, 1
  store ptr %66, ptr %65, align 8
  %67 = getelementptr inbounds nuw { i64, ptr }, ptr %7, i32 0, i32 0
  %68 = load i64, ptr %67, align 8
  %69 = getelementptr inbounds nuw { i64, ptr }, ptr %7, i32 0, i32 1
  %70 = load ptr, ptr %69, align 8
  %71 = getelementptr inbounds nuw { i64, ptr }, ptr %8, i32 0, i32 0
  %72 = load i64, ptr %71, align 8
  %73 = getelementptr inbounds nuw { i64, ptr }, ptr %8, i32 0, i32 1
  %74 = load ptr, ptr %73, align 8
  %75 = getelementptr inbounds nuw { i64, ptr }, ptr %11, i32 0, i32 0
  %76 = load i64, ptr %75, align 8
  %77 = getelementptr inbounds nuw { i64, ptr }, ptr %11, i32 0, i32 1
  %78 = load ptr, ptr %77, align 8
  %79 = call { i64, ptr } @ret_error2(i64 %68, ptr %70, i64 %72, ptr %74, i64 %76, ptr %78)
  %80 = getelementptr inbounds nuw { i64, ptr }, ptr %6, i32 0, i32 0
  %81 = extractvalue { i64, ptr } %79, 0
  store i64 %81, ptr %80, align 8
  %82 = getelementptr inbounds nuw { i64, ptr }, ptr %6, i32 0, i32 1
  %83 = extractvalue { i64, ptr } %79, 1
  store ptr %83, ptr %82, align 8
  br label %190

84:                                               ; preds = %54
  br label %85

85:                                               ; preds = %84, %53
  %86 = getelementptr inbounds nuw { i64, ptr }, ptr %8, i32 0, i32 0
  %87 = load i64, ptr %86, align 8
  %88 = getelementptr inbounds nuw { i64, ptr }, ptr %8, i32 0, i32 1
  %89 = load ptr, ptr %88, align 8
  %90 = call i32 @jv_get_kind(i64 %87, ptr %89)
  %91 = icmp ne i32 %90, 5
  br i1 %91, label %92, label %115

92:                                               ; preds = %85
  %93 = call { i64, ptr } @jv_string(ptr noundef @.str.221)
  %94 = getelementptr inbounds nuw { i64, ptr }, ptr %12, i32 0, i32 0
  %95 = extractvalue { i64, ptr } %93, 0
  store i64 %95, ptr %94, align 8
  %96 = getelementptr inbounds nuw { i64, ptr }, ptr %12, i32 0, i32 1
  %97 = extractvalue { i64, ptr } %93, 1
  store ptr %97, ptr %96, align 8
  %98 = getelementptr inbounds nuw { i64, ptr }, ptr %7, i32 0, i32 0
  %99 = load i64, ptr %98, align 8
  %100 = getelementptr inbounds nuw { i64, ptr }, ptr %7, i32 0, i32 1
  %101 = load ptr, ptr %100, align 8
  %102 = getelementptr inbounds nuw { i64, ptr }, ptr %8, i32 0, i32 0
  %103 = load i64, ptr %102, align 8
  %104 = getelementptr inbounds nuw { i64, ptr }, ptr %8, i32 0, i32 1
  %105 = load ptr, ptr %104, align 8
  %106 = getelementptr inbounds nuw { i64, ptr }, ptr %12, i32 0, i32 0
  %107 = load i64, ptr %106, align 8
  %108 = getelementptr inbounds nuw { i64, ptr }, ptr %12, i32 0, i32 1
  %109 = load ptr, ptr %108, align 8
  %110 = call { i64, ptr } @ret_error2(i64 %99, ptr %101, i64 %103, ptr %105, i64 %107, ptr %109)
  %111 = getelementptr inbounds nuw { i64, ptr }, ptr %6, i32 0, i32 0
  %112 = extractvalue { i64, ptr } %110, 0
  store i64 %112, ptr %111, align 8
  %113 = getelementptr inbounds nuw { i64, ptr }, ptr %6, i32 0, i32 1
  %114 = extractvalue { i64, ptr } %110, 1
  store ptr %114, ptr %113, align 8
  br label %190

115:                                              ; preds = %85
  call void @llvm.lifetime.start.p0(i64 56, ptr %13) #10
  %116 = getelementptr inbounds nuw { i64, ptr }, ptr %7, i32 0, i32 0
  %117 = load i64, ptr %116, align 8
  %118 = getelementptr inbounds nuw { i64, ptr }, ptr %7, i32 0, i32 1
  %119 = load ptr, ptr %118, align 8
  %120 = call i32 @jv2tm(i64 %117, ptr %119, ptr noundef %13)
  %121 = icmp ne i32 %120, 0
  br i1 %121, label %141, label %122

122:                                              ; preds = %115
  %123 = call { i64, ptr } @jv_string(ptr noundef @.str.220)
  %124 = getelementptr inbounds nuw { i64, ptr }, ptr %14, i32 0, i32 0
  %125 = extractvalue { i64, ptr } %123, 0
  store i64 %125, ptr %124, align 8
  %126 = getelementptr inbounds nuw { i64, ptr }, ptr %14, i32 0, i32 1
  %127 = extractvalue { i64, ptr } %123, 1
  store ptr %127, ptr %126, align 8
  %128 = getelementptr inbounds nuw { i64, ptr }, ptr %8, i32 0, i32 0
  %129 = load i64, ptr %128, align 8
  %130 = getelementptr inbounds nuw { i64, ptr }, ptr %8, i32 0, i32 1
  %131 = load ptr, ptr %130, align 8
  %132 = getelementptr inbounds nuw { i64, ptr }, ptr %14, i32 0, i32 0
  %133 = load i64, ptr %132, align 8
  %134 = getelementptr inbounds nuw { i64, ptr }, ptr %14, i32 0, i32 1
  %135 = load ptr, ptr %134, align 8
  %136 = call { i64, ptr } @ret_error(i64 %129, ptr %131, i64 %133, ptr %135)
  %137 = getelementptr inbounds nuw { i64, ptr }, ptr %6, i32 0, i32 0
  %138 = extractvalue { i64, ptr } %136, 0
  store i64 %138, ptr %137, align 8
  %139 = getelementptr inbounds nuw { i64, ptr }, ptr %6, i32 0, i32 1
  %140 = extractvalue { i64, ptr } %136, 1
  store ptr %140, ptr %139, align 8
  store i32 1, ptr %15, align 4
  br label %189

141:                                              ; preds = %115
  call void @llvm.lifetime.start.p0(i64 8, ptr %16) #10
  %142 = getelementptr inbounds nuw { i64, ptr }, ptr %8, i32 0, i32 0
  %143 = load i64, ptr %142, align 8
  %144 = getelementptr inbounds nuw { i64, ptr }, ptr %8, i32 0, i32 1
  %145 = load ptr, ptr %144, align 8
  %146 = call ptr @jv_string_value(i64 %143, ptr %145)
  store ptr %146, ptr %16, align 8, !tbaa !12
  call void @llvm.lifetime.start.p0(i64 8, ptr %17) #10
  %147 = load ptr, ptr %16, align 8, !tbaa !12
  %148 = call i64 @strlen(ptr noundef %147) #12
  %149 = add i64 %148, 100
  store i64 %149, ptr %17, align 8, !tbaa !22
  call void @llvm.lifetime.start.p0(i64 8, ptr %18) #10
  %150 = load i64, ptr %17, align 8, !tbaa !22
  %151 = alloca i8, i64 %150, align 16
  store ptr %151, ptr %18, align 8, !tbaa !12
  call void @llvm.lifetime.start.p0(i64 8, ptr %19) #10
  %152 = load ptr, ptr %18, align 8, !tbaa !12
  %153 = load i64, ptr %17, align 8, !tbaa !22
  %154 = load ptr, ptr %16, align 8, !tbaa !12
  %155 = call i64 @strftime(ptr noundef %152, i64 noundef %153, ptr noundef %154, ptr noundef %13) #10
  store i64 %155, ptr %19, align 8, !tbaa !22
  %156 = getelementptr inbounds nuw { i64, ptr }, ptr %8, i32 0, i32 0
  %157 = load i64, ptr %156, align 8
  %158 = getelementptr inbounds nuw { i64, ptr }, ptr %8, i32 0, i32 1
  %159 = load ptr, ptr %158, align 8
  call void @jv_free(i64 %157, ptr %159)
  %160 = load i64, ptr %19, align 8, !tbaa !22
  %161 = icmp eq i64 %160, 0
  br i1 %161, label %166, label %162

162:                                              ; preds = %141
  %163 = load i64, ptr %19, align 8, !tbaa !22
  %164 = load i64, ptr %17, align 8, !tbaa !22
  %165 = icmp ugt i64 %163, %164
  br i1 %165, label %166, label %181

166:                                              ; preds = %162, %141
  %167 = call { i64, ptr } @jv_string(ptr noundef @.str.222)
  %168 = getelementptr inbounds nuw { i64, ptr }, ptr %20, i32 0, i32 0
  %169 = extractvalue { i64, ptr } %167, 0
  store i64 %169, ptr %168, align 8
  %170 = getelementptr inbounds nuw { i64, ptr }, ptr %20, i32 0, i32 1
  %171 = extractvalue { i64, ptr } %167, 1
  store ptr %171, ptr %170, align 8
  %172 = getelementptr inbounds nuw { i64, ptr }, ptr %20, i32 0, i32 0
  %173 = load i64, ptr %172, align 8
  %174 = getelementptr inbounds nuw { i64, ptr }, ptr %20, i32 0, i32 1
  %175 = load ptr, ptr %174, align 8
  %176 = call { i64, ptr } @jv_invalid_with_msg(i64 %173, ptr %175)
  %177 = getelementptr inbounds nuw { i64, ptr }, ptr %6, i32 0, i32 0
  %178 = extractvalue { i64, ptr } %176, 0
  store i64 %178, ptr %177, align 8
  %179 = getelementptr inbounds nuw { i64, ptr }, ptr %6, i32 0, i32 1
  %180 = extractvalue { i64, ptr } %176, 1
  store ptr %180, ptr %179, align 8
  store i32 1, ptr %15, align 4
  br label %188

181:                                              ; preds = %162
  %182 = load ptr, ptr %18, align 8, !tbaa !12
  %183 = call { i64, ptr } @jv_string(ptr noundef %182)
  %184 = getelementptr inbounds nuw { i64, ptr }, ptr %6, i32 0, i32 0
  %185 = extractvalue { i64, ptr } %183, 0
  store i64 %185, ptr %184, align 8
  %186 = getelementptr inbounds nuw { i64, ptr }, ptr %6, i32 0, i32 1
  %187 = extractvalue { i64, ptr } %183, 1
  store ptr %187, ptr %186, align 8
  store i32 1, ptr %15, align 4
  br label %188

188:                                              ; preds = %181, %166
  call void @llvm.lifetime.end.p0(i64 8, ptr %19) #10
  call void @llvm.lifetime.end.p0(i64 8, ptr %18) #10
  call void @llvm.lifetime.end.p0(i64 8, ptr %17) #10
  call void @llvm.lifetime.end.p0(i64 8, ptr %16) #10
  br label %189

189:                                              ; preds = %188, %122
  call void @llvm.lifetime.end.p0(i64 56, ptr %13) #10
  br label %190

190:                                              ; preds = %189, %92, %61, %48
  %191 = load { i64, ptr }, ptr %6, align 8
  ret { i64, ptr } %191
}