; Function Attrs: nounwind uwtable
define internal { i64, ptr } @f_strftime(ptr noundef readnone captures(none) %0, i64 %1, ptr %2, i64 %3, ptr %4) #0 {
  %6 = alloca %struct.tm, align 8
  %7 = tail call i32 @jv_get_kind(i64 %1, ptr %2) #14
  %8 = icmp eq i32 %7, 4
  br i1 %8, label %9, label %15

9:                                                ; preds = %5
  %10 = tail call { i64, ptr } @f_gmtime(ptr poison, i64 %1, ptr %2)
  %11 = extractvalue { i64, ptr } %10, 0
  %12 = extractvalue { i64, ptr } %10, 1
  %13 = tail call i32 @jv_get_kind(i64 %11, ptr %12) #14
  %.not48 = icmp eq i32 %13, 0
  br i1 %.not48, label %14, label %22

14:                                               ; preds = %9
  tail call void @jv_free(i64 %3, ptr %4) #14
  br label %51

15:                                               ; preds = %5
  %16 = tail call i32 @jv_get_kind(i64 %1, ptr %2) #14
  %.not = icmp eq i32 %16, 6
  br i1 %.not, label %22, label %17

17:                                               ; preds = %15
  %18 = tail call { i64, ptr } @jv_string(ptr noundef nonnull @.str.220) #14
  %19 = extractvalue { i64, ptr } %18, 0
  %20 = extractvalue { i64, ptr } %18, 1
  tail call void @jv_free(i64 %1, ptr %2) #14
  tail call void @jv_free(i64 %3, ptr %4) #14
  %21 = tail call { i64, ptr } @jv_invalid_with_msg(i64 %19, ptr %20) #14
  br label %51

22:                                               ; preds = %15, %9
  %.sroa.029.0 = phi i64 [ %11, %9 ], [ %1, %15 ]
  %.sroa.10.0 = phi ptr [ %12, %9 ], [ %2, %15 ]
  %23 = tail call i32 @jv_get_kind(i64 %3, ptr %4) #14
  %.not44 = icmp eq i32 %23, 5
  br i1 %.not44, label %29, label %24

24:                                               ; preds = %22
  %25 = tail call { i64, ptr } @jv_string(ptr noundef nonnull @.str.221) #14
  %26 = extractvalue { i64, ptr } %25, 0
  %27 = extractvalue { i64, ptr } %25, 1
  tail call void @jv_free(i64 %.sroa.029.0, ptr %.sroa.10.0) #14
  tail call void @jv_free(i64 %3, ptr %4) #14
  %28 = tail call { i64, ptr } @jv_invalid_with_msg(i64 %26, ptr %27) #14
  br label %51

29:                                               ; preds = %22
  call void @llvm.lifetime.start.p0(i64 56, ptr nonnull %6) #14
  %30 = call fastcc i32 @jv2tm(i64 %.sroa.029.0, ptr %.sroa.10.0, ptr noundef %6)
  %.not45 = icmp eq i32 %30, 0
  br i1 %.not45, label %31, label %36

31:                                               ; preds = %29
  %32 = tail call { i64, ptr } @jv_string(ptr noundef nonnull @.str.220) #14
  %33 = extractvalue { i64, ptr } %32, 0
  %34 = extractvalue { i64, ptr } %32, 1
  tail call void @jv_free(i64 %3, ptr %4) #14
  %35 = tail call { i64, ptr } @jv_invalid_with_msg(i64 %33, ptr %34) #14
  br label %50

36:                                               ; preds = %29
  %37 = tail call ptr @jv_string_value(i64 %3, ptr %4) #14
  %38 = tail call i64 @strlen(ptr noundef nonnull dereferenceable(1) %37) #17
  %39 = add i64 %38, 100
  %40 = alloca i8, i64 %39, align 16
  %41 = call i64 @strftime(ptr noundef nonnull %40, i64 noundef %39, ptr noundef nonnull %37, ptr noundef nonnull %6) #14
  call void @jv_free(i64 %3, ptr %4) #14
  %42 = add i64 %41, -1
  %or.cond.not = icmp ult i64 %42, %39
  br i1 %or.cond.not, label %48, label %43

43:                                               ; preds = %36
  %44 = call { i64, ptr } @jv_string(ptr noundef nonnull @.str.222) #14
  %45 = extractvalue { i64, ptr } %44, 0
  %46 = extractvalue { i64, ptr } %44, 1
  %47 = call { i64, ptr } @jv_invalid_with_msg(i64 %45, ptr %46) #14
  br label %50

48:                                               ; preds = %36
  %49 = call { i64, ptr } @jv_string(ptr noundef nonnull %40) #14
  br label %50

50:                                               ; preds = %43, %48, %31
  %.pn.pn = phi { i64, ptr } [ %35, %31 ], [ %47, %43 ], [ %49, %48 ]
  call void @llvm.lifetime.end.p0(i64 56, ptr nonnull %6) #14
  br label %51

51:                                               ; preds = %50, %24, %17, %14
  %.fca.1.insert.merged = phi { i64, ptr } [ %28, %24 ], [ %.pn.pn, %50 ], [ %10, %14 ], [ %21, %17 ]
  ret { i64, ptr } %.fca.1.insert.merged
}